target datalayout = "e-m:e-p270:32:32-p271:32:32-p272:64:64-i64:64-i128:128-f80:128-n8:16:32:64-S128"
target triple = "x86_64-pc-linux-gnu"

%"class.LIEF::PE::RichEntry" = type { %"class.LIEF::Object", i16, i16, i32 }
%"class.LIEF::Object" = type { ptr }
%"struct.std::_Setw" = type { i32 }
%"struct.std::_Setfill" = type { i8 }

@.str = private unnamed_addr constant [7 x i8] c"ID: 0x\00", align 1
@.str.1 = private unnamed_addr constant [2 x i8] c" \00", align 1
@.str.2 = private unnamed_addr constant [13 x i8] c"Build ID: 0x\00", align 1
@.str.3 = private unnamed_addr constant [8 x i8] c"Count: \00", align 1

; Function Attrs: mustprogress nounwind uwtable
define noundef i32 @_ZNK4LIEF2PE9RichEntry5countEv(ptr noundef nonnull align 8 dereferenceable(16) %0) #0 align 2 {
  %2 = alloca ptr, align 8
  store ptr %0, ptr %2, align 8
  %3 = load ptr, ptr %2, align 8
  %4 = getelementptr inbounds %"class.LIEF::PE::RichEntry", ptr %3, i32 0, i32 3
  %5 = load i32, ptr %4, align 4
  ret i32 %5
}

; Function Attrs: mustprogress nounwind uwtable
define noundef zeroext i16 @_ZNK4LIEF2PE9RichEntry8build_idEv(ptr noundef nonnull align 8 dereferenceable(16) %0) #0 align 2 {
  %2 = alloca ptr, align 8
  store ptr %0, ptr %2, align 8
  %3 = load ptr, ptr %2, align 8
  %4 = getelementptr inbounds %"class.LIEF::PE::RichEntry", ptr %3, i32 0, i32 2
  %5 = load i16, ptr %4, align 2
  ret i16 %5
}

; Function Attrs: mustprogress nounwind uwtable
define noundef zeroext i16 @_ZNK4LIEF2PE9RichEntry2idEv(ptr noundef nonnull align 8 dereferenceable(16) %0) #0 align 2 {
  %2 = alloca ptr, align 8
  store ptr %0, ptr %2, align 8
  %3 = load ptr, ptr %2, align 8
  %4 = getelementptr inbounds %"class.LIEF::PE::RichEntry", ptr %3, i32 0, i32 1
  %5 = load i16, ptr %4, align 8
  ret i16 %5
}

; Function Attrs: mustprogress nounwind uwtable
define linkonce_odr i8 @_ZSt7setfillIcESt8_SetfillIT_ES1_(i8 noundef signext %0) #0 comdat {
  %2 = alloca %"struct.std::_Setfill", align 1
  %3 = alloca i8, align 1
  store i8 %0, ptr %3, align 1
  %4 = getelementptr inbounds %"struct.std::_Setfill", ptr %2, i32 0, i32 0
  %5 = load i8, ptr %3, align 1
  store i8 %5, ptr %4, align 1
  %6 = getelementptr inbounds %"struct.std::_Setfill", ptr %2, i32 0, i32 0
  %7 = load i8, ptr %6, align 1
  ret i8 %7
}

; Function Attrs: mustprogress nounwind uwtable
define linkonce_odr i32 @_ZSt4setwi(i32 noundef %0) #0 comdat {
  %2 = alloca %"struct.std::_Setw", align 4
  %3 = alloca i32, align 4
  store i32 %0, ptr %3, align 4
  %4 = getelementptr inbounds %"struct.std::_Setw", ptr %2, i32 0, i32 0
  %5 = load i32, ptr %3, align 4
  store i32 %5, ptr %4, align 4
  %6 = getelementptr inbounds %"struct.std::_Setw", ptr %2, i32 0, i32 0
  %7 = load i32, ptr %6, align 4
  ret i32 %7
}

; Function Attrs: mustprogress uwtable
define noundef nonnull align 8 dereferenceable(8) ptr @_ZN4LIEF2PElsERSoRKNS0_9RichEntryE(ptr noundef nonnull align 8 dereferenceable(8) %0, ptr noundef nonnull align 8 dereferenceable(16) %1) #3 {
  %3 = alloca ptr, align 8
  %4 = alloca ptr, align 8
  %5 = alloca %"struct.std::_Setw", align 4
  %6 = alloca %"struct.std::_Setfill", align 1
  %7 = alloca %"struct.std::_Setw", align 4
  %8 = alloca %"struct.std::_Setfill", align 1
  %9 = alloca %"struct.std::_Setw", align 4
  store ptr %0, ptr %3, align 8
  store ptr %1, ptr %4, align 8
  %10 = load ptr, ptr %3, align 8
  %11 = call noundef nonnull align 8 dereferenceable(8) ptr @_ZStlsISt11char_traitsIcEERSt13basic_ostreamIcT_ES5_PKc(ptr noundef nonnull align 8 dereferenceable(8) %10, ptr noundef @.str)
  %12 = call noundef nonnull align 8 dereferenceable(8) ptr @_ZNSolsEPFRSt8ios_baseS0_E(ptr noundef nonnull align 8 dereferenceable(8) %11, ptr noundef @_ZSt3hexRSt8ios_base)
  %13 = call i32 @_ZSt4setwi(i32 noundef 4)
  %14 = getelementptr inbounds %"struct.std::_Setw", ptr %5, i32 0, i32 0
  store i32 %13, ptr %14, align 4
  %15 = getelementptr inbounds %"struct.std::_Setw", ptr %5, i32 0, i32 0
  %16 = load i32, ptr %15, align 4
  %17 = call noundef nonnull align 8 dereferenceable(8) ptr @_ZStlsIcSt11char_traitsIcEERSt13basic_ostreamIT_T0_ES6_St5_Setw(ptr noundef nonnull align 8 dereferenceable(8) %12, i32 %16)
  %18 = call i8 @_ZSt7setfillIcESt8_SetfillIT_ES1_(i8 noundef signext 48)
  %19 = getelementptr inbounds %"struct.std::_Setfill", ptr %6, i32 0, i32 0
  store i8 %18, ptr %19, align 1
  %20 = getelementptr inbounds %"struct.std::_Setfill", ptr %6, i32 0, i32 0
  %21 = load i8, ptr %20, align 1
  %22 = call noundef nonnull align 8 dereferenceable(8) ptr @_ZStlsIcSt11char_traitsIcEERSt13basic_ostreamIT_T0_ES6_St8_SetfillIS3_E(ptr noundef nonnull align 8 dereferenceable(8) %17, i8 %21)
  %23 = load ptr, ptr %4, align 8
  %24 = call noundef zeroext i16 @_ZNK4LIEF2PE9RichEntry2idEv(ptr noundef nonnull align 8 dereferenceable(16) %23)
  %25 = call noundef nonnull align 8 dereferenceable(8) ptr @_ZNSolsEt(ptr noundef nonnull align 8 dereferenceable(8) %22, i16 noundef zeroext %24)
  %26 = call noundef nonnull align 8 dereferenceable(8) ptr @_ZStlsISt11char_traitsIcEERSt13basic_ostreamIcT_ES5_PKc(ptr noundef nonnull align 8 dereferenceable(8) %25, ptr noundef @.str.1)
  %27 = load ptr, ptr %3, align 8
  %28 = call noundef nonnull align 8 dereferenceable(8) ptr @_ZStlsISt11char_traitsIcEERSt13basic_ostreamIcT_ES5_PKc(ptr noundef nonnull align 8 dereferenceable(8) %27, ptr noundef @.str.2)
  %29 = call noundef nonnull align 8 dereferenceable(8) ptr @_ZNSolsEPFRSt8ios_baseS0_E(ptr noundef nonnull align 8 dereferenceable(8) %28, ptr noundef @_ZSt3hexRSt8ios_base)
  %30 = call i32 @_ZSt4setwi(i32 noundef 4)
  %31 = getelementptr inbounds %"struct.std::_Setw", ptr %7, i32 0, i32 0
  store i32 %30, ptr %31, align 4
  %32 = getelementptr inbounds %"struct.std::_Setw", ptr %7, i32 0, i32 0
  %33 = load i32, ptr %32, align 4
  %34 = call noundef nonnull align 8 dereferenceable(8) ptr @_ZStlsIcSt11char_traitsIcEERSt13basic_ostreamIT_T0_ES6_St5_Setw(ptr noundef nonnull align 8 dereferenceable(8) %29, i32 %33)
  %35 = call i8 @_ZSt7setfillIcESt8_SetfillIT_ES1_(i8 noundef signext 48)
  %36 = getelementptr inbounds %"struct.std::_Setfill", ptr %8, i32 0, i32 0
  store i8 %35, ptr %36, align 1
  %37 = getelementptr inbounds %"struct.std::_Setfill", ptr %8, i32 0, i32 0
  %38 = load i8, ptr %37, align 1
  %39 = call noundef nonnull align 8 dereferenceable(8) ptr @_ZStlsIcSt11char_traitsIcEERSt13basic_ostreamIT_T0_ES6_St8_SetfillIS3_E(ptr noundef nonnull align 8 dereferenceable(8) %34, i8 %38)
  %40 = load ptr, ptr %4, align 8
  %41 = call noundef zeroext i16 @_ZNK4LIEF2PE9RichEntry8build_idEv(ptr noundef nonnull align 8 dereferenceable(16) %40)
  %42 = call noundef nonnull align 8 dereferenceable(8) ptr @_ZNSolsEt(ptr noundef nonnull align 8 dereferenceable(8) %39, i16 noundef zeroext %41)
  %43 = call noundef nonnull align 8 dereferenceable(8) ptr @_ZStlsISt11char_traitsIcEERSt13basic_ostreamIcT_ES5_PKc(ptr noundef nonnull align 8 dereferenceable(8) %42, ptr noundef @.str.1)
  %44 = load ptr, ptr %3, align 8
  %45 = call noundef nonnull align 8 dereferenceable(8) ptr @_ZStlsISt11char_traitsIcEERSt13basic_ostreamIcT_ES5_PKc(ptr noundef nonnull align 8 dereferenceable(8) %44, ptr noundef @.str.3)
  %46 = call noundef nonnull align 8 dereferenceable(8) ptr @_ZNSolsEPFRSt8ios_baseS0_E(ptr noundef nonnull align 8 dereferenceable(8) %45, ptr noundef @_ZSt3decRSt8ios_base)
  %47 = call i32 @_ZSt4setwi(i32 noundef 0)
  %48 = getelementptr inbounds %"struct.std::_Setw", ptr %9, i32 0, i32 0
  store i32 %47, ptr %48, align 4
  %49 = getelementptr inbounds %"struct.std::_Setw", ptr %9, i32 0, i32 0
  %50 = load i32, ptr %49, align 4
  %51 = call noundef nonnull align 8 dereferenceable(8) ptr @_ZStlsIcSt11char_traitsIcEERSt13basic_ostreamIT_T0_ES6_St5_Setw(ptr noundef nonnull align 8 dereferenceable(8) %46, i32 %50)
  %52 = load ptr, ptr %4, align 8
  %53 = call noundef i32 @_ZNK4LIEF2PE9RichEntry5countEv(ptr noundef nonnull align 8 dereferenceable(16) %52)
  %54 = call noundef nonnull align 8 dereferenceable(8) ptr @_ZNSolsEj(ptr noundef nonnull align 8 dereferenceable(8) %51, i32 noundef %53)
  %55 = load ptr, ptr %3, align 8
  ret ptr %55
}